target datalayout = "e-m:e-p270:32:32-p271:32:32-p272:64:64-i64:64-i128:128-f80:128-n8:16:32:64-S128"
target triple = "x86_64-pc-linux-gnu"

%struct.ossl_param_st = type { ptr, i32, ptr, i64, i64 }

@opparam = internal global [2 x %struct.ossl_param_st] zeroinitializer, align 16
@.str.3 = private unnamed_addr constant [38 x i8] c"../openssl/test/evp_pkey_dhkem_test.c\00", align 1
@rkey = internal global [2 x ptr] zeroinitializer, align 16
@rctx = internal global [2 x ptr] zeroinitializer, align 16
@.str.73 = private unnamed_addr constant [62 x i8] c"EVP_PKEY_auth_encapsulate_init(rctx[id1], rkey[id2], opparam)\00", align 1
@.str.74 = private unnamed_addr constant [2 x i8] c"0\00", align 1

; Function Attrs: nounwind uwtable
define internal i32 @test_auth_key_type_mismatch(i32 noundef %0) #0 {
  %2 = alloca i32, align 4
  %3 = alloca i32, align 4
  %4 = alloca i32, align 4
  store i32 %0, ptr %2, align 4, !tbaa !10
  call void @llvm.lifetime.start.p0(i64 4, ptr %3) #6
  %5 = load i32, ptr %2, align 4, !tbaa !10
  store i32 %5, ptr %3, align 4, !tbaa !10
  call void @llvm.lifetime.start.p0(i64 4, ptr %4) #6
  %6 = load i32, ptr %2, align 4, !tbaa !10
  %7 = icmp ne i32 %6, 0
  %8 = xor i1 %7, true
  %9 = zext i1 %8 to i32
  store i32 %9, ptr %4, align 4, !tbaa !10
  %10 = load i32, ptr %3, align 4, !tbaa !10
  %11 = sext i32 %10 to i64
  %12 = getelementptr inbounds [2 x ptr], ptr @rctx, i64 0, i64 %11
  %13 = load ptr, ptr %12, align 8, !tbaa !19
  %14 = load i32, ptr %4, align 4, !tbaa !10
  %15 = sext i32 %14 to i64
  %16 = getelementptr inbounds [2 x ptr], ptr @rkey, i64 0, i64 %15
  %17 = load ptr, ptr %16, align 8, !tbaa !17
  %18 = call i32 @EVP_PKEY_auth_encapsulate_init(ptr noundef %13, ptr noundef %17, ptr noundef @opparam)
  %19 = call i32 @test_int_eq(ptr noundef @.str.3, i32 noundef 266, ptr noundef @.str.73, ptr noundef @.str.74, i32 noundef %18, i32 noundef 0)
  call void @llvm.lifetime.end.p0(i64 4, ptr %4) #6
  call void @llvm.lifetime.end.p0(i64 4, ptr %3) #6
  ret i32 %19
}