; Function Attrs: nounwind uwtable
define internal i32 @test_auth_key_type_mismatch(i32 noundef %0) #0 {
  %.not = icmp eq i32 %0, 0
  %2 = sext i32 %0 to i64
  %3 = getelementptr inbounds [2 x ptr], ptr @rctx, i64 0, i64 %2
  %4 = load ptr, ptr %3, align 8, !tbaa !19
  %5 = zext i1 %.not to i64
  %6 = getelementptr inbounds nuw [2 x ptr], ptr @rkey, i64 0, i64 %5
  %7 = load ptr, ptr %6, align 8, !tbaa !17
  %8 = tail call i32 @EVP_PKEY_auth_encapsulate_init(ptr noundef %4, ptr noundef %7, ptr noundef nonnull @opparam) #5
  %9 = tail call i32 @test_int_eq(ptr noundef nonnull @.str.3, i32 noundef 266, ptr noundef nonnull @.str.73, ptr noundef nonnull @.str.74, i32 noundef %8, i32 noundef 0) #5
  ret i32 %9
}